; Function Attrs: mustprogress uwtable
define noundef ptr @_ZNK7rocksdb22ColumnFamilyHandleImpl13GetComparatorEv(ptr noundef nonnull align 8 dereferenceable(32) %this) unnamed_addr #7 align 2 {
entry:
  %vtable = load ptr, ptr %this, align 8
  %vfn = getelementptr inbounds i8, ptr %vtable, i64 48
  %0 = load ptr, ptr %vfn, align 8
  %call = tail call noundef ptr %0(ptr noundef nonnull align 8 dereferenceable(32) %this)
  %user_comparator_.i.i = getelementptr inbounds i8, ptr %call, i64 72
  %1 = load ptr, ptr %user_comparator_.i.i, align 8
  ret ptr %1
}